; ModuleID = '14/1330.c'
source_filename = "14/1330.c"
target datalayout = "e-m:e-p270:32:32-p271:32:32-p272:64:64-i64:64-f80:128-n8:16:32:64-S128"
target triple = "x86_64-pc-linux-gnu"

%struct.stu = type { i32, i32, i32, i32, %struct.stu* }

@.str = private unnamed_addr constant [7 x i8] c"%d %d\0A\00", align 1
@.str.1 = private unnamed_addr constant [3 x i8] c"%d\00", align 1
@.str.2 = private unnamed_addr constant [9 x i8] c"%d %d %d\00", align 1

; Function Attrs: noinline nounwind uwtable
define dso_local void @max(%struct.stu* %0) #0 {
  %2 = alloca %struct.stu*, align 8
  %3 = alloca %struct.stu*, align 8
  %4 = alloca %struct.stu*, align 8
  %5 = alloca %struct.stu*, align 8
  %6 = alloca %struct.stu*, align 8
  %7 = alloca i32, align 4
  store %struct.stu* %0, %struct.stu** %2, align 8
  store i32 0, i32* %7, align 4
  %8 = load %struct.stu*, %struct.stu** %2, align 8
  store %struct.stu* %8, %struct.stu** %3, align 8
  br label %9

9:                                                ; preds = %26, %1
  %10 = load %struct.stu*, %struct.stu** %3, align 8
  store %struct.stu* %10, %struct.stu** %5, align 8
  %11 = load %struct.stu*, %struct.stu** %3, align 8
  %12 = getelementptr inbounds %struct.stu, %struct.stu* %11, i32 0, i32 4
  %13 = load %struct.stu*, %struct.stu** %12, align 8
  store %struct.stu* %13, %struct.stu** %3, align 8
  %14 = load i32, i32* %7, align 4
  %15 = load %struct.stu*, %struct.stu** %3, align 8
  %16 = getelementptr inbounds %struct.stu, %struct.stu* %15, i32 0, i32 3
  %17 = load i32, i32* %16, align 4
  %18 = icmp slt i32 %14, %17
  br i1 %18, label %19, label %25

19:                                               ; preds = %9
  %20 = load %struct.stu*, %struct.stu** %3, align 8
  %21 = getelementptr inbounds %struct.stu, %struct.stu* %20, i32 0, i32 3
  %22 = load i32, i32* %21, align 4
  store i32 %22, i32* %7, align 4
  %23 = load %struct.stu*, %struct.stu** %5, align 8
  store %struct.stu* %23, %struct.stu** %6, align 8
  %24 = load %struct.stu*, %struct.stu** %3, align 8
  store %struct.stu* %24, %struct.stu** %4, align 8
  br label %25

25:                                               ; preds = %19, %9
  br label %26

26:                                               ; preds = %25
  %27 = load %struct.stu*, %struct.stu** %3, align 8
  %28 = getelementptr inbounds %struct.stu, %struct.stu* %27, i32 0, i32 4
  %29 = load %struct.stu*, %struct.stu** %28, align 8
  %30 = icmp ne %struct.stu* %29, null
  br i1 %30, label %9, label %31

31:                                               ; preds = %26
  %32 = load %struct.stu*, %struct.stu** %4, align 8
  %33 = getelementptr inbounds %struct.stu, %struct.stu* %32, i32 0, i32 0
  %34 = load i32, i32* %33, align 8
  %35 = load %struct.stu*, %struct.stu** %4, align 8
  %36 = getelementptr inbounds %struct.stu, %struct.stu* %35, i32 0, i32 3
  %37 = load i32, i32* %36, align 4
  %38 = call i32 (i8*, ...) @printf(i8* getelementptr inbounds ([7 x i8], [7 x i8]* @.str, i64 0, i64 0), i32 %34, i32 %37)
  %39 = load %struct.stu*, %struct.stu** %4, align 8
  %40 = getelementptr inbounds %struct.stu, %struct.stu* %39, i32 0, i32 4
  %41 = load %struct.stu*, %struct.stu** %40, align 8
  %42 = load %struct.stu*, %struct.stu** %6, align 8
  %43 = getelementptr inbounds %struct.stu, %struct.stu* %42, i32 0, i32 4
  store %struct.stu* %41, %struct.stu** %43, align 8
  %44 = load %struct.stu*, %struct.stu** %4, align 8
  %45 = bitcast %struct.stu* %44 to i8*
  call void @free(i8* %45) #3
  ret void
}

declare dso_local i32 @printf(i8*, ...) #1

; Function Attrs: nounwind
declare dso_local void @free(i8*) #2

; Function Attrs: noinline nounwind uwtable
define dso_local void @main() #0 {
  %1 = alloca %struct.stu*, align 8
  %2 = alloca %struct.stu*, align 8
  %3 = alloca %struct.stu*, align 8
  %4 = alloca i32, align 4
  %5 = alloca i32, align 4
  %6 = call i32 (i8*, ...) @__isoc99_scanf(i8* getelementptr inbounds ([3 x i8], [3 x i8]* @.str.1, i64 0, i64 0), i32* %4)
  store %struct.stu* inttoptr (i64 100 to %struct.stu*), %struct.stu** %1, align 8
  store %struct.stu* inttoptr (i64 100 to %struct.stu*), %struct.stu** %2, align 8
  %7 = load %struct.stu*, %struct.stu** %2, align 8
  %8 = load %struct.stu*, %struct.stu** %1, align 8
  %9 = getelementptr inbounds %struct.stu, %struct.stu* %8, i32 0, i32 4
  store %struct.stu* %7, %struct.stu** %9, align 8
  store i32 0, i32* %5, align 4
  br label %10

10:                                               ; preds = %35, %0
  %11 = load i32, i32* %5, align 4
  %12 = load i32, i32* %4, align 4
  %13 = icmp slt i32 %11, %12
  br i1 %13, label %14, label %38

14:                                               ; preds = %10
  %15 = load %struct.stu*, %struct.stu** %2, align 8
  %16 = getelementptr inbounds %struct.stu, %struct.stu* %15, i32 0, i32 0
  %17 = load %struct.stu*, %struct.stu** %2, align 8
  %18 = getelementptr inbounds %struct.stu, %struct.stu* %17, i32 0, i32 1
  %19 = load %struct.stu*, %struct.stu** %2, align 8
  %20 = getelementptr inbounds %struct.stu, %struct.stu* %19, i32 0, i32 2
  %21 = call i32 (i8*, ...) @__isoc99_scanf(i8* getelementptr inbounds ([9 x i8], [9 x i8]* @.str.2, i64 0, i64 0), i32* %16, i32* %18, i32* %20)
  %22 = load %struct.stu*, %struct.stu** %2, align 8
  %23 = getelementptr inbounds %struct.stu, %struct.stu* %22, i32 0, i32 1
  %24 = load i32, i32* %23, align 4
  %25 = load %struct.stu*, %struct.stu** %2, align 8
  %26 = getelementptr inbounds %struct.stu, %struct.stu* %25, i32 0, i32 2
  %27 = load i32, i32* %26, align 8
  %28 = add nsw i32 %24, %27
  %29 = load %struct.stu*, %struct.stu** %2, align 8
  %30 = getelementptr inbounds %struct.stu, %struct.stu* %29, i32 0, i32 3
  store i32 %28, i32* %30, align 4
  store %struct.stu* inttoptr (i64 100 to %struct.stu*), %struct.stu** %3, align 8
  %31 = load %struct.stu*, %struct.stu** %3, align 8
  %32 = load %struct.stu*, %struct.stu** %2, align 8
  %33 = getelementptr inbounds %struct.stu, %struct.stu* %32, i32 0, i32 4
  store %struct.stu* %31, %struct.stu** %33, align 8
  %34 = load %struct.stu*, %struct.stu** %3, align 8
  store %struct.stu* %34, %struct.stu** %2, align 8
  br label %35

35:                                               ; preds = %14
  %36 = load i32, i32* %5, align 4
  %37 = add nsw i32 %36, 1
  store i32 %37, i32* %5, align 4
  br label %10

38:                                               ; preds = %10
  %39 = load %struct.stu*, %struct.stu** %2, align 8
  %40 = getelementptr inbounds %struct.stu, %struct.stu* %39, i32 0, i32 4
  store %struct.stu* null, %struct.stu** %40, align 8
  %41 = load %struct.stu*, %struct.stu** %1, align 8
  call void @max(%struct.stu* %41)
  %42 = load %struct.stu*, %struct.stu** %1, align 8
  call void @max(%struct.stu* %42)
  %43 = load %struct.stu*, %struct.stu** %1, align 8
  call void @max(%struct.stu* %43)
  ret void
}

declare dso_local i32 @__isoc99_scanf(i8*, ...) #1


!llvm.module.flags = !{!0}
!llvm.ident = !{!1}

!0 = !{i32 1, !"wchar_size", i32 4}
!1 = !{!"clang version 10.0.0-4ubuntu1 "}
